; Function Attrs: nounwind uwtable
define float @Scl_LibertyReadPinCap(ptr noundef readonly captures(none) %0, ptr noundef readonly captures(none) %1, ptr noundef readonly captures(none) %2) local_unnamed_addr #4 {
  %4 = getelementptr inbounds nuw i8, ptr %1, i64 36
  %5 = load i32, ptr %4, align 4
  %6 = icmp slt i32 %5, 0
  br i1 %6, label %.loopexit, label %Scl_LibertyItem.exit

Scl_LibertyItem.exit:                             ; preds = %3
  %7 = getelementptr inbounds nuw i8, ptr %0, i64 40
  %8 = load ptr, ptr %7, align 8
  %.not17 = icmp eq ptr %8, null
  br i1 %.not17, label %.loopexit, label %.lr.ph

.lr.ph:                                           ; preds = %Scl_LibertyItem.exit
  %9 = zext nneg i32 %5 to i64
  %10 = getelementptr inbounds nuw %struct.Scl_Item_t_, ptr %8, i64 %9
  %11 = getelementptr i8, ptr %0, i64 8
  %.val = load ptr, ptr %11, align 8
  %12 = getelementptr inbounds nuw i8, ptr %0, i64 40
  br label %13

13:                                               ; preds = %.lr.ph, %Scl_LibertyItem.exit13
  %.018 = phi ptr [ %10, %.lr.ph ], [ %34, %Scl_LibertyItem.exit13 ]
  %14 = getelementptr inbounds nuw i8, ptr %.018, i64 8
  %15 = load i64, ptr %14, align 4
  %.sroa.0.0.extract.trunc.i = trunc i64 %15 to i32
  %.sroa.4.0.extract.shift.i = lshr i64 %15, 32
  %.sroa.4.0.extract.trunc.i = trunc nuw i64 %.sroa.4.0.extract.shift.i to i32
  %sext.i = shl i64 %15, 32
  %16 = ashr exact i64 %sext.i, 32
  %17 = getelementptr inbounds i8, ptr %.val, i64 %16
  %18 = sub nsw i32 %.sroa.4.0.extract.trunc.i, %.sroa.0.0.extract.trunc.i
  %19 = sext i32 %18 to i64
  %20 = tail call i32 @strncmp(ptr noundef readonly %17, ptr noundef readonly %2, i64 noundef %19) #30
  %.not.i = icmp eq i32 %20, 0
  br i1 %.not.i, label %Scl_LibertyCompare.exit, label %Scl_LibertyCompare.exit.thread

Scl_LibertyCompare.exit:                          ; preds = %13
  %21 = tail call i64 @strlen(ptr noundef nonnull readonly dereferenceable(1) %2) #30
  %22 = trunc i64 %21 to i32
  %.not15 = icmp eq i32 %18, %22
  br i1 %.not15, label %23, label %Scl_LibertyCompare.exit.thread

23:                                               ; preds = %Scl_LibertyCompare.exit
  %24 = getelementptr inbounds nuw i8, ptr %.018, i64 16
  %25 = load i64, ptr %24, align 4
  %26 = tail call ptr @Scl_LibertyReadString(ptr noundef nonnull %0, i64 %25)
  %27 = tail call double @atof(ptr noundef %26) #30
  %28 = fptrunc double %27 to float
  br label %.loopexit

Scl_LibertyCompare.exit.thread:                   ; preds = %13, %Scl_LibertyCompare.exit
  %29 = getelementptr inbounds nuw i8, ptr %.018, i64 32
  %30 = load i32, ptr %29, align 4
  %31 = icmp slt i32 %30, 0
  br i1 %31, label %.loopexit, label %Scl_LibertyItem.exit13

Scl_LibertyItem.exit13:                           ; preds = %Scl_LibertyCompare.exit.thread
  %32 = load ptr, ptr %12, align 8
  %33 = zext nneg i32 %30 to i64
  %34 = getelementptr inbounds nuw %struct.Scl_Item_t_, ptr %32, i64 %33
  %.not = icmp eq ptr %32, null
  br i1 %.not, label %.loopexit, label %13, !llvm.loop !53

.loopexit:                                        ; preds = %Scl_LibertyCompare.exit.thread, %Scl_LibertyItem.exit13, %3, %Scl_LibertyItem.exit, %23
  %.011 = phi float [ %28, %23 ], [ 0.000000e+00, %Scl_LibertyItem.exit ], [ 0.000000e+00, %3 ], [ 0.000000e+00, %Scl_LibertyItem.exit13 ], [ 0.000000e+00, %Scl_LibertyCompare.exit.thread ]
  ret float %.011
}